
Movezeroes_Os.elf:     file format elf32-littleriscv


Disassembly of section .text:

00010094 <exit>:
   10094:	ff010113          	addi	sp,sp,-16
   10098:	00000593          	li	a1,0
   1009c:	00812423          	sw	s0,8(sp)
   100a0:	00112623          	sw	ra,12(sp)
   100a4:	00050413          	mv	s0,a0
   100a8:	608000ef          	jal	ra,106b0 <__call_exitprocs>
   100ac:	c281a503          	lw	a0,-984(gp) # 11ca0 <_global_impure_ptr>
   100b0:	03c52783          	lw	a5,60(a0)
   100b4:	00078463          	beqz	a5,100bc <exit+0x28>
   100b8:	000780e7          	jalr	a5
   100bc:	00040513          	mv	a0,s0
   100c0:	758000ef          	jal	ra,10818 <_exit>

000100c4 <main>:
   100c4:	fd010113          	addi	sp,sp,-48
   100c8:	000115b7          	lui	a1,0x11
   100cc:	01400613          	li	a2,20
   100d0:	85058593          	addi	a1,a1,-1968 # 10850 <__errno+0x8>
   100d4:	00c10513          	addi	a0,sp,12
   100d8:	02112623          	sw	ra,44(sp)
   100dc:	270000ef          	jal	ra,1034c <memcpy>
   100e0:	00c10513          	addi	a0,sp,12
   100e4:	00500593          	li	a1,5
   100e8:	0d4000ef          	jal	ra,101bc <moveZeroes>
   100ec:	02c12083          	lw	ra,44(sp)
   100f0:	00000513          	li	a0,0
   100f4:	03010113          	addi	sp,sp,48
   100f8:	00008067          	ret

000100fc <register_fini>:
   100fc:	00000793          	li	a5,0
   10100:	00078863          	beqz	a5,10110 <register_fini+0x14>
   10104:	00000517          	auipc	a0,0x0
   10108:	15850513          	addi	a0,a0,344 # 1025c <__libc_fini_array>
   1010c:	13c0006f          	j	10248 <atexit>
   10110:	00008067          	ret

00010114 <_start>:
   10114:	00002197          	auipc	gp,0x2
   10118:	f6418193          	addi	gp,gp,-156 # 12078 <__global_pointer$>
   1011c:	c3818513          	addi	a0,gp,-968 # 11cb0 <completed.1>
   10120:	c7818613          	addi	a2,gp,-904 # 11cf0 <__BSS_END__>
   10124:	40a60633          	sub	a2,a2,a0
   10128:	00000593          	li	a1,0
   1012c:	3c4000ef          	jal	ra,104f0 <memset>
   10130:	00000517          	auipc	a0,0x0
   10134:	12c50513          	addi	a0,a0,300 # 1025c <__libc_fini_array>
   10138:	110000ef          	jal	ra,10248 <atexit>
   1013c:	17c000ef          	jal	ra,102b8 <__libc_init_array>
   10140:	00012503          	lw	a0,0(sp)
   10144:	00410593          	addi	a1,sp,4
   10148:	00000613          	li	a2,0
   1014c:	f79ff0ef          	jal	ra,100c4 <main>
   10150:	f45ff06f          	j	10094 <exit>

00010154 <__do_global_dtors_aux>:
   10154:	ff010113          	addi	sp,sp,-16
   10158:	00812423          	sw	s0,8(sp)
   1015c:	c3818413          	addi	s0,gp,-968 # 11cb0 <completed.1>
   10160:	00044783          	lbu	a5,0(s0)
   10164:	00112623          	sw	ra,12(sp)
   10168:	02079263          	bnez	a5,1018c <__do_global_dtors_aux+0x38>
   1016c:	00000793          	li	a5,0
   10170:	00078a63          	beqz	a5,10184 <__do_global_dtors_aux+0x30>
   10174:	00001517          	auipc	a0,0x1
   10178:	6f050513          	addi	a0,a0,1776 # 11864 <__FRAME_END__>
   1017c:	00000097          	auipc	ra,0x0
   10180:	000000e7          	jalr	zero # 0 <exit-0x10094>
   10184:	00100793          	li	a5,1
   10188:	00f40023          	sb	a5,0(s0)
   1018c:	00c12083          	lw	ra,12(sp)
   10190:	00812403          	lw	s0,8(sp)
   10194:	01010113          	addi	sp,sp,16
   10198:	00008067          	ret

0001019c <frame_dummy>:
   1019c:	00000793          	li	a5,0
   101a0:	00078c63          	beqz	a5,101b8 <frame_dummy+0x1c>
   101a4:	c6018593          	addi	a1,gp,-928 # 11cd8 <object.0>
   101a8:	00001517          	auipc	a0,0x1
   101ac:	6bc50513          	addi	a0,a0,1724 # 11864 <__FRAME_END__>
   101b0:	00000317          	auipc	t1,0x0
   101b4:	00000067          	jr	zero # 0 <exit-0x10094>
   101b8:	00008067          	ret

000101bc <moveZeroes>:
   101bc:	ff010113          	addi	sp,sp,-16
   101c0:	00012423          	sw	zero,8(sp)
   101c4:	00012623          	sw	zero,12(sp)
   101c8:	00812783          	lw	a5,8(sp)
   101cc:	00b7c863          	blt	a5,a1,101dc <moveZeroes+0x20>
   101d0:	00812503          	lw	a0,8(sp)
   101d4:	01010113          	addi	sp,sp,16
   101d8:	00008067          	ret
   101dc:	00812783          	lw	a5,8(sp)
   101e0:	00279793          	slli	a5,a5,0x2
   101e4:	00f507b3          	add	a5,a0,a5
   101e8:	0007a783          	lw	a5,0(a5)
   101ec:	04078663          	beqz	a5,10238 <moveZeroes+0x7c>
   101f0:	00812703          	lw	a4,8(sp)
   101f4:	00c12783          	lw	a5,12(sp)
   101f8:	00271713          	slli	a4,a4,0x2
   101fc:	00e50733          	add	a4,a0,a4
   10200:	00072703          	lw	a4,0(a4)
   10204:	00279793          	slli	a5,a5,0x2
   10208:	00f507b3          	add	a5,a0,a5
   1020c:	00e7a023          	sw	a4,0(a5)
   10210:	00812703          	lw	a4,8(sp)
   10214:	00c12783          	lw	a5,12(sp)
   10218:	00f70a63          	beq	a4,a5,1022c <moveZeroes+0x70>
   1021c:	00812783          	lw	a5,8(sp)
   10220:	00279793          	slli	a5,a5,0x2
   10224:	00f507b3          	add	a5,a0,a5
   10228:	0007a023          	sw	zero,0(a5)
   1022c:	00c12783          	lw	a5,12(sp)
   10230:	00178793          	addi	a5,a5,1
   10234:	00f12623          	sw	a5,12(sp)
   10238:	00812783          	lw	a5,8(sp)
   1023c:	00178793          	addi	a5,a5,1
   10240:	00f12423          	sw	a5,8(sp)
   10244:	f85ff06f          	j	101c8 <moveZeroes+0xc>

00010248 <atexit>:
   10248:	00050593          	mv	a1,a0
   1024c:	00000693          	li	a3,0
   10250:	00000613          	li	a2,0
   10254:	00000513          	li	a0,0
   10258:	3740006f          	j	105cc <__register_exitproc>

0001025c <__libc_fini_array>:
   1025c:	ff010113          	addi	sp,sp,-16
   10260:	00812423          	sw	s0,8(sp)
   10264:	00001797          	auipc	a5,0x1
   10268:	60c78793          	addi	a5,a5,1548 # 11870 <__do_global_dtors_aux_fini_array_entry>
   1026c:	00001417          	auipc	s0,0x1
   10270:	60840413          	addi	s0,s0,1544 # 11874 <__fini_array_end>
   10274:	40f40433          	sub	s0,s0,a5
   10278:	00912223          	sw	s1,4(sp)
   1027c:	00112623          	sw	ra,12(sp)
   10280:	40245493          	srai	s1,s0,0x2
   10284:	02048063          	beqz	s1,102a4 <__libc_fini_array+0x48>
   10288:	ffc40413          	addi	s0,s0,-4
   1028c:	00f40433          	add	s0,s0,a5
   10290:	00042783          	lw	a5,0(s0)
   10294:	fff48493          	addi	s1,s1,-1
   10298:	ffc40413          	addi	s0,s0,-4
   1029c:	000780e7          	jalr	a5
   102a0:	fe0498e3          	bnez	s1,10290 <__libc_fini_array+0x34>
   102a4:	00c12083          	lw	ra,12(sp)
   102a8:	00812403          	lw	s0,8(sp)
   102ac:	00412483          	lw	s1,4(sp)
   102b0:	01010113          	addi	sp,sp,16
   102b4:	00008067          	ret

000102b8 <__libc_init_array>:
   102b8:	ff010113          	addi	sp,sp,-16
   102bc:	00812423          	sw	s0,8(sp)
   102c0:	01212023          	sw	s2,0(sp)
   102c4:	00001797          	auipc	a5,0x1
   102c8:	5a478793          	addi	a5,a5,1444 # 11868 <__init_array_start>
   102cc:	00001417          	auipc	s0,0x1
   102d0:	59c40413          	addi	s0,s0,1436 # 11868 <__init_array_start>
   102d4:	00112623          	sw	ra,12(sp)
   102d8:	00912223          	sw	s1,4(sp)
   102dc:	40878933          	sub	s2,a5,s0
   102e0:	02878063          	beq	a5,s0,10300 <__libc_init_array+0x48>
   102e4:	40295913          	srai	s2,s2,0x2
   102e8:	00000493          	li	s1,0
   102ec:	00042783          	lw	a5,0(s0)
   102f0:	00148493          	addi	s1,s1,1
   102f4:	00440413          	addi	s0,s0,4
   102f8:	000780e7          	jalr	a5
   102fc:	ff24e8e3          	bltu	s1,s2,102ec <__libc_init_array+0x34>
   10300:	00001797          	auipc	a5,0x1
   10304:	57078793          	addi	a5,a5,1392 # 11870 <__do_global_dtors_aux_fini_array_entry>
   10308:	00001417          	auipc	s0,0x1
   1030c:	56040413          	addi	s0,s0,1376 # 11868 <__init_array_start>
   10310:	40878933          	sub	s2,a5,s0
   10314:	40295913          	srai	s2,s2,0x2
   10318:	00878e63          	beq	a5,s0,10334 <__libc_init_array+0x7c>
   1031c:	00000493          	li	s1,0
   10320:	00042783          	lw	a5,0(s0)
   10324:	00148493          	addi	s1,s1,1
   10328:	00440413          	addi	s0,s0,4
   1032c:	000780e7          	jalr	a5
   10330:	ff24e8e3          	bltu	s1,s2,10320 <__libc_init_array+0x68>
   10334:	00c12083          	lw	ra,12(sp)
   10338:	00812403          	lw	s0,8(sp)
   1033c:	00412483          	lw	s1,4(sp)
   10340:	00012903          	lw	s2,0(sp)
   10344:	01010113          	addi	sp,sp,16
   10348:	00008067          	ret

0001034c <memcpy>:
   1034c:	00b547b3          	xor	a5,a0,a1
   10350:	0037f793          	andi	a5,a5,3
   10354:	00c508b3          	add	a7,a0,a2
   10358:	06079463          	bnez	a5,103c0 <memcpy+0x74>
   1035c:	00300793          	li	a5,3
   10360:	06c7f063          	bgeu	a5,a2,103c0 <memcpy+0x74>
   10364:	00357793          	andi	a5,a0,3
   10368:	00050713          	mv	a4,a0
   1036c:	06079a63          	bnez	a5,103e0 <memcpy+0x94>
   10370:	ffc8f613          	andi	a2,a7,-4
   10374:	40e606b3          	sub	a3,a2,a4
   10378:	02000793          	li	a5,32
   1037c:	08d7ce63          	blt	a5,a3,10418 <memcpy+0xcc>
   10380:	00058693          	mv	a3,a1
   10384:	00070793          	mv	a5,a4
   10388:	02c77863          	bgeu	a4,a2,103b8 <memcpy+0x6c>
   1038c:	0006a803          	lw	a6,0(a3)
   10390:	00478793          	addi	a5,a5,4
   10394:	00468693          	addi	a3,a3,4
   10398:	ff07ae23          	sw	a6,-4(a5)
   1039c:	fec7e8e3          	bltu	a5,a2,1038c <memcpy+0x40>
   103a0:	fff60793          	addi	a5,a2,-1
   103a4:	40e787b3          	sub	a5,a5,a4
   103a8:	ffc7f793          	andi	a5,a5,-4
   103ac:	00478793          	addi	a5,a5,4
   103b0:	00f70733          	add	a4,a4,a5
   103b4:	00f585b3          	add	a1,a1,a5
   103b8:	01176863          	bltu	a4,a7,103c8 <memcpy+0x7c>
   103bc:	00008067          	ret
   103c0:	00050713          	mv	a4,a0
   103c4:	05157863          	bgeu	a0,a7,10414 <memcpy+0xc8>
   103c8:	0005c783          	lbu	a5,0(a1)
   103cc:	00170713          	addi	a4,a4,1
   103d0:	00158593          	addi	a1,a1,1
   103d4:	fef70fa3          	sb	a5,-1(a4)
   103d8:	fee898e3          	bne	a7,a4,103c8 <memcpy+0x7c>
   103dc:	00008067          	ret
   103e0:	0005c683          	lbu	a3,0(a1)
   103e4:	00170713          	addi	a4,a4,1
   103e8:	00377793          	andi	a5,a4,3
   103ec:	fed70fa3          	sb	a3,-1(a4)
   103f0:	00158593          	addi	a1,a1,1
   103f4:	f6078ee3          	beqz	a5,10370 <memcpy+0x24>
   103f8:	0005c683          	lbu	a3,0(a1)
   103fc:	00170713          	addi	a4,a4,1
   10400:	00377793          	andi	a5,a4,3
   10404:	fed70fa3          	sb	a3,-1(a4)
   10408:	00158593          	addi	a1,a1,1
   1040c:	fc079ae3          	bnez	a5,103e0 <memcpy+0x94>
   10410:	f61ff06f          	j	10370 <memcpy+0x24>
   10414:	00008067          	ret
   10418:	ff010113          	addi	sp,sp,-16
   1041c:	00812623          	sw	s0,12(sp)
   10420:	02000413          	li	s0,32
   10424:	0005a383          	lw	t2,0(a1)
   10428:	0045a283          	lw	t0,4(a1)
   1042c:	0085af83          	lw	t6,8(a1)
   10430:	00c5af03          	lw	t5,12(a1)
   10434:	0105ae83          	lw	t4,16(a1)
   10438:	0145ae03          	lw	t3,20(a1)
   1043c:	0185a303          	lw	t1,24(a1)
   10440:	01c5a803          	lw	a6,28(a1)
   10444:	0205a683          	lw	a3,32(a1)
   10448:	02470713          	addi	a4,a4,36
   1044c:	40e607b3          	sub	a5,a2,a4
   10450:	fc772e23          	sw	t2,-36(a4)
   10454:	fe572023          	sw	t0,-32(a4)
   10458:	fff72223          	sw	t6,-28(a4)
   1045c:	ffe72423          	sw	t5,-24(a4)
   10460:	ffd72623          	sw	t4,-20(a4)
   10464:	ffc72823          	sw	t3,-16(a4)
   10468:	fe672a23          	sw	t1,-12(a4)
   1046c:	ff072c23          	sw	a6,-8(a4)
   10470:	fed72e23          	sw	a3,-4(a4)
   10474:	02458593          	addi	a1,a1,36
   10478:	faf446e3          	blt	s0,a5,10424 <memcpy+0xd8>
   1047c:	00058693          	mv	a3,a1
   10480:	00070793          	mv	a5,a4
   10484:	02c77863          	bgeu	a4,a2,104b4 <memcpy+0x168>
   10488:	0006a803          	lw	a6,0(a3)
   1048c:	00478793          	addi	a5,a5,4
   10490:	00468693          	addi	a3,a3,4
   10494:	ff07ae23          	sw	a6,-4(a5)
   10498:	fec7e8e3          	bltu	a5,a2,10488 <memcpy+0x13c>
   1049c:	fff60793          	addi	a5,a2,-1
   104a0:	40e787b3          	sub	a5,a5,a4
   104a4:	ffc7f793          	andi	a5,a5,-4
   104a8:	00478793          	addi	a5,a5,4
   104ac:	00f70733          	add	a4,a4,a5
   104b0:	00f585b3          	add	a1,a1,a5
   104b4:	01176863          	bltu	a4,a7,104c4 <memcpy+0x178>
   104b8:	00c12403          	lw	s0,12(sp)
   104bc:	01010113          	addi	sp,sp,16
   104c0:	00008067          	ret
   104c4:	0005c783          	lbu	a5,0(a1)
   104c8:	00170713          	addi	a4,a4,1
   104cc:	00158593          	addi	a1,a1,1
   104d0:	fef70fa3          	sb	a5,-1(a4)
   104d4:	fee882e3          	beq	a7,a4,104b8 <memcpy+0x16c>
   104d8:	0005c783          	lbu	a5,0(a1)
   104dc:	00170713          	addi	a4,a4,1
   104e0:	00158593          	addi	a1,a1,1
   104e4:	fef70fa3          	sb	a5,-1(a4)
   104e8:	fce89ee3          	bne	a7,a4,104c4 <memcpy+0x178>
   104ec:	fcdff06f          	j	104b8 <memcpy+0x16c>

000104f0 <memset>:
   104f0:	00f00313          	li	t1,15
   104f4:	00050713          	mv	a4,a0
   104f8:	02c37e63          	bgeu	t1,a2,10534 <memset+0x44>
   104fc:	00f77793          	andi	a5,a4,15
   10500:	0a079063          	bnez	a5,105a0 <memset+0xb0>
   10504:	08059263          	bnez	a1,10588 <memset+0x98>
   10508:	ff067693          	andi	a3,a2,-16
   1050c:	00f67613          	andi	a2,a2,15
   10510:	00e686b3          	add	a3,a3,a4
   10514:	00b72023          	sw	a1,0(a4)
   10518:	00b72223          	sw	a1,4(a4)
   1051c:	00b72423          	sw	a1,8(a4)
   10520:	00b72623          	sw	a1,12(a4)
   10524:	01070713          	addi	a4,a4,16
   10528:	fed766e3          	bltu	a4,a3,10514 <memset+0x24>
   1052c:	00061463          	bnez	a2,10534 <memset+0x44>
   10530:	00008067          	ret
   10534:	40c306b3          	sub	a3,t1,a2
   10538:	00269693          	slli	a3,a3,0x2
   1053c:	00000297          	auipc	t0,0x0
   10540:	005686b3          	add	a3,a3,t0
   10544:	00c68067          	jr	12(a3)
   10548:	00b70723          	sb	a1,14(a4)
   1054c:	00b706a3          	sb	a1,13(a4)
   10550:	00b70623          	sb	a1,12(a4)
   10554:	00b705a3          	sb	a1,11(a4)
   10558:	00b70523          	sb	a1,10(a4)
   1055c:	00b704a3          	sb	a1,9(a4)
   10560:	00b70423          	sb	a1,8(a4)
   10564:	00b703a3          	sb	a1,7(a4)
   10568:	00b70323          	sb	a1,6(a4)
   1056c:	00b702a3          	sb	a1,5(a4)
   10570:	00b70223          	sb	a1,4(a4)
   10574:	00b701a3          	sb	a1,3(a4)
   10578:	00b70123          	sb	a1,2(a4)
   1057c:	00b700a3          	sb	a1,1(a4)
   10580:	00b70023          	sb	a1,0(a4)
   10584:	00008067          	ret
   10588:	0ff5f593          	zext.b	a1,a1
   1058c:	00859693          	slli	a3,a1,0x8
   10590:	00d5e5b3          	or	a1,a1,a3
   10594:	01059693          	slli	a3,a1,0x10
   10598:	00d5e5b3          	or	a1,a1,a3
   1059c:	f6dff06f          	j	10508 <memset+0x18>
   105a0:	00279693          	slli	a3,a5,0x2
   105a4:	00000297          	auipc	t0,0x0
   105a8:	005686b3          	add	a3,a3,t0
   105ac:	00008293          	mv	t0,ra
   105b0:	fa0680e7          	jalr	-96(a3)
   105b4:	00028093          	mv	ra,t0
   105b8:	ff078793          	addi	a5,a5,-16
   105bc:	40f70733          	sub	a4,a4,a5
   105c0:	00f60633          	add	a2,a2,a5
   105c4:	f6c378e3          	bgeu	t1,a2,10534 <memset+0x44>
   105c8:	f3dff06f          	j	10504 <memset+0x14>

000105cc <__register_exitproc>:
   105cc:	fe010113          	addi	sp,sp,-32
   105d0:	01212823          	sw	s2,16(sp)
   105d4:	c3418913          	addi	s2,gp,-972 # 11cac <__atexit_recursive_mutex>
   105d8:	00812c23          	sw	s0,24(sp)
   105dc:	00050413          	mv	s0,a0
   105e0:	00092503          	lw	a0,0(s2)
   105e4:	00912a23          	sw	s1,20(sp)
   105e8:	01312623          	sw	s3,12(sp)
   105ec:	01412423          	sw	s4,8(sp)
   105f0:	00112e23          	sw	ra,28(sp)
   105f4:	00058493          	mv	s1,a1
   105f8:	00060a13          	mv	s4,a2
   105fc:	00068993          	mv	s3,a3
   10600:	1fc000ef          	jal	ra,107fc <__retarget_lock_acquire_recursive>
   10604:	c281a703          	lw	a4,-984(gp) # 11ca0 <_global_impure_ptr>
   10608:	14872783          	lw	a5,328(a4)
   1060c:	08078663          	beqz	a5,10698 <__register_exitproc+0xcc>
   10610:	0047a703          	lw	a4,4(a5)
   10614:	01f00593          	li	a1,31
   10618:	00092503          	lw	a0,0(s2)
   1061c:	08e5c463          	blt	a1,a4,106a4 <__register_exitproc+0xd8>
   10620:	00271593          	slli	a1,a4,0x2
   10624:	02041e63          	bnez	s0,10660 <__register_exitproc+0x94>
   10628:	00170713          	addi	a4,a4,1
   1062c:	00e7a223          	sw	a4,4(a5)
   10630:	00b787b3          	add	a5,a5,a1
   10634:	0097a423          	sw	s1,8(a5)
   10638:	1dc000ef          	jal	ra,10814 <__retarget_lock_release_recursive>
   1063c:	00000513          	li	a0,0
   10640:	01c12083          	lw	ra,28(sp)
   10644:	01812403          	lw	s0,24(sp)
   10648:	01412483          	lw	s1,20(sp)
   1064c:	01012903          	lw	s2,16(sp)
   10650:	00c12983          	lw	s3,12(sp)
   10654:	00812a03          	lw	s4,8(sp)
   10658:	02010113          	addi	sp,sp,32
   1065c:	00008067          	ret
   10660:	00b78833          	add	a6,a5,a1
   10664:	09482423          	sw	s4,136(a6)
   10668:	1887a683          	lw	a3,392(a5)
   1066c:	00100613          	li	a2,1
   10670:	00e61633          	sll	a2,a2,a4
   10674:	00c6e6b3          	or	a3,a3,a2
   10678:	18d7a423          	sw	a3,392(a5)
   1067c:	11382423          	sw	s3,264(a6)
   10680:	00200693          	li	a3,2
   10684:	fad412e3          	bne	s0,a3,10628 <__register_exitproc+0x5c>
   10688:	18c7a683          	lw	a3,396(a5)
   1068c:	00c6e6b3          	or	a3,a3,a2
   10690:	18d7a623          	sw	a3,396(a5)
   10694:	f95ff06f          	j	10628 <__register_exitproc+0x5c>
   10698:	14c70793          	addi	a5,a4,332
   1069c:	14f72423          	sw	a5,328(a4)
   106a0:	f71ff06f          	j	10610 <__register_exitproc+0x44>
   106a4:	170000ef          	jal	ra,10814 <__retarget_lock_release_recursive>
   106a8:	fff00513          	li	a0,-1
   106ac:	f95ff06f          	j	10640 <__register_exitproc+0x74>

000106b0 <__call_exitprocs>:
   106b0:	fd010113          	addi	sp,sp,-48
   106b4:	01712623          	sw	s7,12(sp)
   106b8:	c3418b93          	addi	s7,gp,-972 # 11cac <__atexit_recursive_mutex>
   106bc:	01612823          	sw	s6,16(sp)
   106c0:	00050b13          	mv	s6,a0
   106c4:	000ba503          	lw	a0,0(s7)
   106c8:	03212023          	sw	s2,32(sp)
   106cc:	01312e23          	sw	s3,28(sp)
   106d0:	01412c23          	sw	s4,24(sp)
   106d4:	01512a23          	sw	s5,20(sp)
   106d8:	01812423          	sw	s8,8(sp)
   106dc:	02112623          	sw	ra,44(sp)
   106e0:	02812423          	sw	s0,40(sp)
   106e4:	02912223          	sw	s1,36(sp)
   106e8:	01912223          	sw	s9,4(sp)
   106ec:	00058c13          	mv	s8,a1
   106f0:	10c000ef          	jal	ra,107fc <__retarget_lock_acquire_recursive>
   106f4:	c281aa03          	lw	s4,-984(gp) # 11ca0 <_global_impure_ptr>
   106f8:	148a2903          	lw	s2,328(s4)
   106fc:	00100a93          	li	s5,1
   10700:	fff00993          	li	s3,-1
   10704:	02090863          	beqz	s2,10734 <__call_exitprocs+0x84>
   10708:	00492483          	lw	s1,4(s2)
   1070c:	fff48413          	addi	s0,s1,-1
   10710:	02044263          	bltz	s0,10734 <__call_exitprocs+0x84>
   10714:	00249493          	slli	s1,s1,0x2
   10718:	009904b3          	add	s1,s2,s1
   1071c:	040c0863          	beqz	s8,1076c <__call_exitprocs+0xbc>
   10720:	1044a783          	lw	a5,260(s1)
   10724:	05878463          	beq	a5,s8,1076c <__call_exitprocs+0xbc>
   10728:	fff40413          	addi	s0,s0,-1
   1072c:	ffc48493          	addi	s1,s1,-4
   10730:	ff3416e3          	bne	s0,s3,1071c <__call_exitprocs+0x6c>
   10734:	02812403          	lw	s0,40(sp)
   10738:	000ba503          	lw	a0,0(s7)
   1073c:	02c12083          	lw	ra,44(sp)
   10740:	02412483          	lw	s1,36(sp)
   10744:	02012903          	lw	s2,32(sp)
   10748:	01c12983          	lw	s3,28(sp)
   1074c:	01812a03          	lw	s4,24(sp)
   10750:	01412a83          	lw	s5,20(sp)
   10754:	01012b03          	lw	s6,16(sp)
   10758:	00c12b83          	lw	s7,12(sp)
   1075c:	00812c03          	lw	s8,8(sp)
   10760:	00412c83          	lw	s9,4(sp)
   10764:	03010113          	addi	sp,sp,48
   10768:	0ac0006f          	j	10814 <__retarget_lock_release_recursive>
   1076c:	00492783          	lw	a5,4(s2)
   10770:	0044a683          	lw	a3,4(s1)
   10774:	fff78793          	addi	a5,a5,-1
   10778:	04878e63          	beq	a5,s0,107d4 <__call_exitprocs+0x124>
   1077c:	0004a223          	sw	zero,4(s1)
   10780:	fa0684e3          	beqz	a3,10728 <__call_exitprocs+0x78>
   10784:	18892783          	lw	a5,392(s2)
   10788:	008a9733          	sll	a4,s5,s0
   1078c:	00492c83          	lw	s9,4(s2)
   10790:	00f777b3          	and	a5,a4,a5
   10794:	02079263          	bnez	a5,107b8 <__call_exitprocs+0x108>
   10798:	000680e7          	jalr	a3
   1079c:	00492703          	lw	a4,4(s2)
   107a0:	148a2783          	lw	a5,328(s4)
   107a4:	01971463          	bne	a4,s9,107ac <__call_exitprocs+0xfc>
   107a8:	f92780e3          	beq	a5,s2,10728 <__call_exitprocs+0x78>
   107ac:	f80784e3          	beqz	a5,10734 <__call_exitprocs+0x84>
   107b0:	00078913          	mv	s2,a5
   107b4:	f55ff06f          	j	10708 <__call_exitprocs+0x58>
   107b8:	18c92783          	lw	a5,396(s2)
   107bc:	0844a583          	lw	a1,132(s1)
   107c0:	00f77733          	and	a4,a4,a5
   107c4:	00071c63          	bnez	a4,107dc <__call_exitprocs+0x12c>
   107c8:	000b0513          	mv	a0,s6
   107cc:	000680e7          	jalr	a3
   107d0:	fcdff06f          	j	1079c <__call_exitprocs+0xec>
   107d4:	00892223          	sw	s0,4(s2)
   107d8:	fa9ff06f          	j	10780 <__call_exitprocs+0xd0>
   107dc:	00058513          	mv	a0,a1
   107e0:	000680e7          	jalr	a3
   107e4:	fb9ff06f          	j	1079c <__call_exitprocs+0xec>

000107e8 <__retarget_lock_init>:
   107e8:	00008067          	ret

000107ec <__retarget_lock_init_recursive>:
   107ec:	00008067          	ret

000107f0 <__retarget_lock_close>:
   107f0:	00008067          	ret

000107f4 <__retarget_lock_close_recursive>:
   107f4:	00008067          	ret

000107f8 <__retarget_lock_acquire>:
   107f8:	00008067          	ret

000107fc <__retarget_lock_acquire_recursive>:
   107fc:	00008067          	ret

00010800 <__retarget_lock_try_acquire>:
   10800:	00100513          	li	a0,1
   10804:	00008067          	ret

00010808 <__retarget_lock_try_acquire_recursive>:
   10808:	00100513          	li	a0,1
   1080c:	00008067          	ret

00010810 <__retarget_lock_release>:
   10810:	00008067          	ret

00010814 <__retarget_lock_release_recursive>:
   10814:	00008067          	ret

00010818 <_exit>:
   10818:	05d00893          	li	a7,93
   1081c:	00000073          	ecall
   10820:	00054463          	bltz	a0,10828 <_exit+0x10>
   10824:	0000006f          	j	10824 <_exit+0xc>
   10828:	ff010113          	addi	sp,sp,-16
   1082c:	00812423          	sw	s0,8(sp)
   10830:	00050413          	mv	s0,a0
   10834:	00112623          	sw	ra,12(sp)
   10838:	40800433          	neg	s0,s0
   1083c:	00c000ef          	jal	ra,10848 <__errno>
   10840:	00852023          	sw	s0,0(a0)
   10844:	0000006f          	j	10844 <_exit+0x2c>

00010848 <__errno>:
   10848:	c301a503          	lw	a0,-976(gp) # 11ca8 <_impure_ptr>
   1084c:	00008067          	ret
